; Function Attrs: mustprogress nounwind uwtable
define internal noundef i32 @_ZL24_native_library_callbackPKcPhS1_Pv(ptr noundef %0, ptr noundef %1, ptr noundef %2, ptr nocapture noundef readonly %3) #2 {
  %5 = alloca %class.EventNativeLibrary, align 8
  %6 = getelementptr inbounds i8, ptr %5, i64 16
  store i8 1, ptr %6, align 8
  %7 = getelementptr inbounds i8, ptr %5, i64 17
  store i8 0, ptr %7, align 1
  %8 = getelementptr inbounds i8, ptr %5, i64 18
  store i8 0, ptr %8, align 2
  %9 = getelementptr inbounds i8, ptr %5, i64 24
  store ptr %0, ptr %9, align 8
  %10 = ptrtoint ptr %1 to i64
  %11 = getelementptr inbounds i8, ptr %5, i64 32
  store i64 %10, ptr %11, align 8
  %12 = ptrtoint ptr %2 to i64
  %13 = getelementptr inbounds i8, ptr %5, i64 40
  store i64 %12, ptr %13, align 8
  %14 = load i64, ptr %3, align 8
  store i64 %14, ptr %5, align 8
  %15 = getelementptr inbounds i8, ptr %5, i64 8
  store i64 %14, ptr %15, align 8
  call void @_ZN8JfrEventI18EventNativeLibraryE6commitEv(ptr noundef nonnull align 8 dereferenceable(19) %5)
  ret i32 0
}